Certificate:
    Data:
        Version: 1 (0x0)
        Serial Number: 6 (0x6)
        Signature Algorithm: md5WithRSAEncryption
        Issuer: C=us, ST=New York, L=New York, O=Example CA from Apress Media LLC, OU=Foundations of Python Network Programming 3rd Ed, CN=ca/emailAddress=ca@example.com
        Validity
            Not Before: Aug  2 13:07:46 2017 GMT
            Not After : Jul  9 13:07:46 2117 GMT
        Subject: C=us, ST=New York, O=Example from Apress Media LLC, OU=Michael You, CN=www.example.com/emailAddress=root@example.com
        Subject Public Key Info:
            Public Key Algorithm: rsaEncryption
            RSA Public Key: (4096 bit)
                Modulus (4096 bit):
                    00:bd:77:d8:9f:4c:de:62:d4:5f:78:93:b0:35:aa:
                    c4:a6:6b:f4:2b:6c:0f:5f:71:aa:38:13:2f:4a:80:
                    35:34:a4:2d:c8:73:4c:54:c1:29:5f:74:10:32:92:
                    41:28:1a:c2:80:9c:d3:60:40:59:d1:fe:af:18:45:
                    3e:f4:f5:22:c2:f0:09:e6:1d:1e:74:a7:57:02:18:
                    a7:2a:43:84:63:71:d4:59:fe:2b:27:d7:25:11:49:
                    ea:50:86:76:c2:41:a8:12:13:05:51:e7:f0:75:8e:
                    b7:82:4a:86:aa:16:91:e5:61:3c:c5:6c:31:de:90:
                    2c:a8:61:ee:42:22:bf:a9:77:fa:6f:56:fd:c8:da:
                    40:d9:65:d6:fd:fc:12:03:15:43:a7:51:91:15:d0:
                    f4:22:fe:7e:a7:54:b7:dd:d5:84:15:f8:5a:77:98:
                    7e:ef:5b:46:a1:25:bf:dc:be:54:0f:fc:bd:88:b8:
                    5e:18:45:09:6a:57:1b:f0:39:69:03:35:5a:5c:ac:
                    8a:ff:4c:44:b9:59:09:2c:a0:97:10:e8:d7:24:d2:
                    07:a5:d7:31:b5:b0:bc:4f:ae:38:88:4e:0a:f6:70:
                    61:2d:a0:1a:e8:43:4e:4b:e0:f4:37:7c:61:b8:5c:
                    17:b9:c8:e7:27:4d:9e:5a:17:94:88:b3:da:c9:6d:
                    30:3b:45:eb:63:bf:9b:b7:a6:15:38:1c:44:56:7e:
                    47:4d:02:06:48:76:da:8a:b1:76:3a:1f:12:54:aa:
                    41:d7:44:03:9b:82:ec:cc:bb:01:f9:ae:ed:f6:bd:
                    06:73:0a:0c:60:ca:eb:e4:8d:f9:9a:69:b8:08:6a:
                    41:6d:0d:50:4a:27:a1:10:8a:66:20:d6:20:dc:1d:
                    d6:74:09:9e:14:12:bd:fd:7d:53:71:f8:f7:fa:f1:
                    76:6a:1c:4c:68:52:6e:ca:7f:3b:9c:ff:ac:be:16:
                    bf:7f:e1:f7:95:d3:00:c5:d9:8f:f9:4d:17:63:06:
                    e3:0c:22:15:5a:6f:02:c0:ff:22:5f:3e:26:b4:17:
                    89:71:b9:69:f1:e9:c0:fe:2f:e3:ba:31:b8:d5:75:
                    8a:2a:65:fb:06:2b:c5:6d:82:3e:d9:6a:cf:4e:95:
                    74:af:22:eb:54:50:14:21:7d:53:b6:06:a9:a1:30:
                    fe:b8:83:2f:47:62:22:8e:ec:11:1e:af:6f:f9:fe:
                    e6:29:9c:e7:a1:2b:e6:fb:87:ac:e7:80:4f:1e:a4:
                    e8:73:a1:52:89:62:e3:8d:cd:08:79:4a:b5:73:28:
                    06:7c:64:09:74:56:ed:1e:28:5f:2a:4a:d2:93:bc:
                    e4:b8:91:36:83:31:d5:e0:8c:4e:e2:2b:52:01:c3:
                    e9:08:f7
                Exponent: 65537 (0x10001)
    Signature Algorithm: md5WithRSAEncryption
        2a:43:87:86:10:16:56:5b:88:29:ff:65:32:dd:4c:71:57:d4:
        53:66:79:64:eb:f4:2b:c9:6f:1d:a8:94:72:48:56:1b:56:4a:
        cb:5e:74:16:0d:60:49:58:8d:11:a4:00:38:89:51:4d:06:7e:
        17:7c:49:15:8b:ca:da:e5:ef:28:e8:6d:21:e0:50:76:0a:34:
        66:32:0c:6a:ff:d8:b7:f5:5b:d7:0f:8e:ab:65:7c:7a:26:4a:
        27:55:40:db:97:60:5f:46:c9:38:55:49:d7:fd:b1:5e:44:ac:
        ad:a1:7e:bf:50:ca:8c:93:7f:b0:2f:b5:2e:19:c6:02:7c:d1:
        3d:61:eb:42:49:0b:83:08:4e:5c:03:af:a0:72:46:47:6e:9d:
        43:25:88:db:e0:98:fb:6f:1c:df:52:22:63:26:f0:4d:ce:ab:
        72:51:3e:1a:62:9e:15:06:f3:7f:31:51:14:3a:a8:29:80:26:
        5d:cc:26:ae:50:9e:82:4b:a6:fd:30:56:1f:00:fe:ac:aa:4e:
        f0:ad:b3:f3:85:4b:f7:dd:cc:17:53:bc:4f:44:78:48:46:d9:
        0e:5f:fd:de:a3:a9:60:63:e3:34:cf:ef:ce:64:63:ee:e8:56:
        e6:52:28:3c:17:dc:ca:20:03:cd:c4:8f:31:d5:37:48:3c:1e:
        9f:ae:1c:eb:e8:38:fe:6e:1e:36:de:b8:67:4a:36:c3:10:b7:
        83:9a:66:66:99:a6:c0:0c:e1:b8:ee:f0:af:ff:db:ba:44:f0:
        6b:05:03:20:b6:64:a1:e0:36:79:15:45:8a:24:1c:79:8e:16:
        37:aa:5a:7f:3b:8c:c3:1c:2e:1f:c1:9d:73:a2:56:96:98:a8:
        81:e9:c9:a5:f6:21:60:c1:b9:33:69:c5:e6:f2:30:7a:80:0a:
        5e:12:03:64:8e:6f:70:61:9a:fb:56:e5:c4:a4:3b:0c:74:84:
        ca:9c:45:ff:08:20:84:5f:77:b1:8f:ef:f7:2f:f9:8c:d9:5c:
        1b:28:27:1f:e7:f6
-----BEGIN CERTIFICATE-----
MIIFVjCCA74CAQYwDQYJKoZIhvcNAQEEBQAwgcUxCzAJBgNVBAYTAnVzMREwDwYD
VQQIEwhOZXcgWW9yazERMA8GA1UEBxMITmV3IFlvcmsxKTAnBgNVBAoTIEV4YW1w
bGUgQ0EgZnJvbSBBcHJlc3MgTWVkaWEgTExDMTkwNwYDVQQLEzBGb3VuZGF0aW9u
cyBvZiBQeXRob24gTmV0d29yayBQcm9ncmFtbWluZyAzcmQgRWQxCzAJBgNVBAMT
AmNhMR0wGwYJKoZIhvcNAQkBFg5jYUBleGFtcGxlLmNvbTAgFw0xNzA4MDIxMzA3
NDZaGA8yMTE3MDcwOTEzMDc0NlowgZkxCzAJBgNVBAYTAnVzMREwDwYDVQQIDAhO
ZXcgWW9yazEmMCQGA1UECgwdRXhhbXBsZSBmcm9tIEFwcmVzcyBNZWRpYSBMTEMx
FDASBgNVBAsMC01pY2hhZWwgWW91MRgwFgYDVQQDDA93d3cuZXhhbXBsZS5jb20x
HzAdBgkqhkiG9w0BCQEWEHJvb3RAZXhhbXBsZS5jb20wggIiMA0GCSqGSIb3DQEB
AQUAA4ICDwAwggIKAoICAQC9d9ifTN5i1F94k7A1qsSma/QrbA9fcao4Ey9KgDU0
pC3Ic0xUwSlfdBAykkEoGsKAnNNgQFnR/q8YRT709SLC8AnmHR50p1cCGKcqQ4Rj
cdRZ/isn1yURSepQhnbCQagSEwVR5/B1jreCSoaqFpHlYTzFbDHekCyoYe5CIr+p
d/pvVv3I2kDZZdb9/BIDFUOnUZEV0PQi/n6nVLfd1YQV+Fp3mH7vW0ahJb/cvlQP
/L2IuF4YRQlqVxvwOWkDNVpcrIr/TES5WQksoJcQ6Nck0gel1zG1sLxPrjiITgr2
cGEtoBroQ05L4PQ3fGG4XBe5yOcnTZ5aF5SIs9rJbTA7Retjv5u3phU4HERWfkdN
AgZIdtqKsXY6HxJUqkHXRAObguzMuwH5ru32vQZzCgxgyuvkjfmaabgIakFtDVBK
J6EQimYg1iDcHdZ0CZ4UEr39fVNx+Pf68XZqHExoUm7Kfzuc/6y+Fr9/4feV0wDF
2Y/5TRdjBuMMIhVabwLA/yJfPia0F4lxuWnx6cD+L+O6MbjVdYoqZfsGK8Vtgj7Z
as9OlXSvIutUUBQhfVO2BqmhMP64gy9HYiKO7BEer2/5/uYpnOehK+b7h6zngE8e
pOhzoVKJYuONzQh5SrVzKAZ8ZAl0Vu0eKF8qStKTvOS4kTaDMdXgjE7iK1IBw+kI
9wIDAQABMA0GCSqGSIb3DQEBBAUAA4IBgQAqQ4eGEBZWW4gp/2Uy3UxxV9RTZnlk
6/QryW8dqJRySFYbVkrLXnQWDWBJWI0RpAA4iVFNBn4XfEkVi8ra5e8o6G0h4FB2
CjRmMgxq/9i39VvXD46rZXx6JkonVUDbl2BfRsk4VUnX/bFeRKytoX6/UMqMk3+w
L7UuGcYCfNE9YetCSQuDCE5cA6+gckZHbp1DJYjb4Jj7bxzfUiJjJvBNzqtyUT4a
Yp4VBvN/MVEUOqgpgCZdzCauUJ6CS6b9MFYfAP6sqk7wrbPzhUv33cwXU7xPRHhI
RtkOX/3eo6lgY+M0z+/OZGPu6FbmUig8F9zKIAPNxI8x1TdIPB6frhzr6Dj+bh42
3rhnSjbDELeDmmZmmabADOG47vCv/9u6RPBrBQMgtmSh4DZ5FUWKJBx5jhY3qlp/
O4zDHC4fwZ1zolaWmKiB6cml9iFgwbkzacXm8jB6gApeEgNkjm9wYZr7VuXEpDsM
dITKnEX/CCCEX3exj+/3L/mM2VwbKCcf5/Y=
-----END CERTIFICATE-----
-----BEGIN RSA PRIVATE KEY-----
MIIJKAIBAAKCAgEAvXfYn0zeYtRfeJOwNarEpmv0K2wPX3GqOBMvSoA1NKQtyHNM
VMEpX3QQMpJBKBrCgJzTYEBZ0f6vGEU+9PUiwvAJ5h0edKdXAhinKkOEY3HUWf4r
J9clEUnqUIZ2wkGoEhMFUefwdY63gkqGqhaR5WE8xWwx3pAsqGHuQiK/qXf6b1b9
yNpA2WXW/fwSAxVDp1GRFdD0Iv5+p1S33dWEFfhad5h+71tGoSW/3L5UD/y9iLhe
GEUJalcb8DlpAzVaXKyK/0xEuVkJLKCXEOjXJNIHpdcxtbC8T644iE4K9nBhLaAa
6ENOS+D0N3xhuFwXucjnJ02eWheUiLPayW0wO0XrY7+bt6YVOBxEVn5HTQIGSHba
irF2Oh8SVKpB10QDm4LszLsB+a7t9r0GcwoMYMrr5I35mmm4CGpBbQ1QSiehEIpm
INYg3B3WdAmeFBK9/X1Tcfj3+vF2ahxMaFJuyn87nP+svha/f+H3ldMAxdmP+U0X
YwbjDCIVWm8CwP8iXz4mtBeJcblp8enA/i/jujG41XWKKmX7BivFbYI+2WrPTpV0
ryLrVFAUIX1TtgapoTD+uIMvR2IijuwRHq9v+f7mKZznoSvm+4es54BPHqToc6FS
iWLjjc0IeUq1cygGfGQJdFbtHihfKkrSk7zkuJE2gzHV4IxO4itSAcPpCPcCAwEA
AQKCAgA6tqnta6+6pp9TSUkgyGOaQvfugNUeuaWLLP7JsoNKZdo+NOShmx5MEzZ1
xXbli61cl7y1JhvvhGIUPlktJc345NPceIeYlMbUwnkDEtsyyfKJVMdg2D4HZoVz
IMgqmJgRyc0rPZn5hBmACcJDcS0TDRf9AfNOShVctMRVwFjullyIJkgM9v2DoRiH
qpaWV/+YGSHBxffx5DWxewJjfygoesbmKt6jJAD2LTGQoXaBYcwGU0Ptd29cgdQJ
lHDjaqQu9dU5GhRt75Z1Ouq1dcI+CcwO62nfKP6iHpYsPysMhXTH48aS1VCtGO/1
RdkufXNowkZHmrkIqCgCWOHi67A3FVs1mOMOpSQAgjCiA2u8j94OUFbbDlBKnxqK
M/+tAoyLXIppGf9Y1ZpC+s5Y5SghRmv77rrTwZCnTtWPqD/LfouK8L57myxPR16X
9Q/wfKdmKtATG4cxHwcxFD23qbG5TbcwoZ0hdUmb7vpgjFB9+YjIvI7xIL29e2ek
gI/E8zaDaBYFYeyZ2zlfQucJSqYZM+SzMSDDnxm2/LJ6d6ykXQuJ9/hnT5Wy+QY7
OuhKH1YaQso350p/IA7yuovda/odf+ixOUrVrESKC+H9g9EzfkgJt+OahpRYhQ0U
xEgHQUKSaJr4Ht2Ze0HIHGHm/2LgR3DLELkBrkoXzbqLPl5QEQKCAQEA6BdcCwpF
K8XIwjamF4Cq4lCMNKudAjBUqsDgUZuQbTbPC+4BPI9CttdAb6ekb/B8VUbvQezV
5+JIbVLiZhC6EjVLJe+Wup3fYi0bYYlpzByQglQkjhKCyCN5ZU6562Iq2Os3xWIy
VP0qoDiDReakXPMWpMqeJd26/mZEI+l7y193qMkIoKXBB9budBNcXiB6+BPZe8mE
iEVimkeqr08bZFmk1Q8WL9W1sL5ce6vW5zlHP0nMl1h6Fhv0+0qniqU+duM9+fmF
MNvqCOqZYqadbfwyeL+j0pUrQhMbK+SHoRXOc0t7+q6PvO31vQswo8Pz6UWVPeEN
gDCj3HzNKZ+jTwKCAQEA0Pxxb9x9+98Z9h4F3UfwKv8VQluPBGEZaIFJm5KC9piW
wLayh8huuqMNNu3KyfIQERbKrq0mkjEAPlEe/oiwaW87PDv/DPqXvmx1dsH3wL0y
g7+iYcdsQmEYOhAZRvoH6iyq8yZxjtIJUL4iDzz303qIXJjIXK4Pg785FM3yj/m6
yhnSipd02Jwe+TXUUepTOtShjDamGDtA46V6ZGzF9TeE3/FvwXhWPx3Zdomk0M3z
TQ0JP0sa9qmAa9htpC+4RCepv762yM8DUk/7rhFJy7icXvlY0uOEMZ4UH3yb/zi8
OEwcQxzvCm3MF5EQ+KiRmcwQvKf9hfacfyG7d6P12QKCAQEAnm47vamQGFZWOgVW
EdsaS40SeG3hqvnVAg7R0cNwrqzoX0tj+rQMpYWAjfeRL3ypUwkuEAGc70KvkDkx
JN0sN3u7xbSsXs2gDIOgGk/UMaoaF21a2sTWE8rrdnVsQrrrZtICazIiC5QaQe7x
5YiREIY8IdfSZyTaHgkvYJhkkiqkI0rAIfGkODbG5ePFfNeNOcVLA85HM0KyEYD0
ieFlYHY1J9+5lIO9GF6KAT4HYCXgddpp17Jk/Kyu6c9HWUR9xGhRCVAEVJr6QoXq
mMYF12t+BKFFMl3zfpJOTQMedp7NJDUV98SriBukURzPYitEWCvQucHkFmqdoMhs
wIohzwKCAQBQ0H4RUsOJJcIFUaDU7B+skM2oxn0spVvM9MoBFgv8zg7l4QByz4g6
NhlDF3tm0mtyIE0qdRzIRZihgH8q0LLfYrsWVOERJMqPQaO+0805xDAHkJB7nUF4
/dD/iwArWT68SJ+mvUQGhaRCi/PhzqLLLcQTgqVgaZLoUIcDS4y0Lk8UHh4zp9Pw
e5biqfU75BBhXJ5H+U4LasZyAaitsv5uEBUbAGNF/oHjkGhqlVmdwTaHojXkOufn
YK6fhacIaceo22miE17dkmfnabSaoGbYF8CoXWYCzyZshYOklWxBqq/mWVBIh6TM
dJ8KsfdNIOqE/cuvGItKRY5I/0NeRZIpAoIBAC+T6m4s57XOOZfATDg5eNp76UiO
tVRMKBWaq3J7PL7q7ljMGGGvRUivyvQXnQsjCLsnNh9Oho/xIMGNq4yDS2tyMvUH
lHasdd462ZlyH468cWmZyDXam5UP1QqYGoHSAUm3nVbVhzF05tUPWotSZgt8geII
Bl/2v9f0cs+O3YVZme9yfZtHRMZLbbxvZRDnik5L4KPwFad7YXPvnAAO9szhfMPm
RhrJbXRDB0g7oexoCz/eEYrz0bPt9jNAtFpFsne0xuAts4XpbxIkwETXzxB9UCEF
5rvGSqm1IIqgy2Pr4pA6F+0r90rrgnk21E2NRGaHtH9fWEhPQlttA5qCC+c=
-----END RSA PRIVATE KEY-----
