Certificate:
    Data:
        Version: 1 (0x0)
        Serial Number: 7 (0x7)
        Signature Algorithm: md5WithRSAEncryption
        Issuer: C=us, ST=New York, L=New York, O=Example CA from Apress Media LLC, OU=Foundations of Python Network Programming 3rd Ed, CN=ca/emailAddress=ca@example.com
        Validity
            Not Before: Aug  2 13:16:18 2017 GMT
            Not After : Jul  9 13:16:18 2117 GMT
        Subject: C=us, ST=New York, O=Example from Apress Media LLC, OU=Michael You, CN=www.example.com/emailAddress=root@example.com
        Subject Public Key Info:
            Public Key Algorithm: rsaEncryption
            RSA Public Key: (4096 bit)
                Modulus (4096 bit):
                    00:bd:77:d8:9f:4c:de:62:d4:5f:78:93:b0:35:aa:
                    c4:a6:6b:f4:2b:6c:0f:5f:71:aa:38:13:2f:4a:80:
                    35:34:a4:2d:c8:73:4c:54:c1:29:5f:74:10:32:92:
                    41:28:1a:c2:80:9c:d3:60:40:59:d1:fe:af:18:45:
                    3e:f4:f5:22:c2:f0:09:e6:1d:1e:74:a7:57:02:18:
                    a7:2a:43:84:63:71:d4:59:fe:2b:27:d7:25:11:49:
                    ea:50:86:76:c2:41:a8:12:13:05:51:e7:f0:75:8e:
                    b7:82:4a:86:aa:16:91:e5:61:3c:c5:6c:31:de:90:
                    2c:a8:61:ee:42:22:bf:a9:77:fa:6f:56:fd:c8:da:
                    40:d9:65:d6:fd:fc:12:03:15:43:a7:51:91:15:d0:
                    f4:22:fe:7e:a7:54:b7:dd:d5:84:15:f8:5a:77:98:
                    7e:ef:5b:46:a1:25:bf:dc:be:54:0f:fc:bd:88:b8:
                    5e:18:45:09:6a:57:1b:f0:39:69:03:35:5a:5c:ac:
                    8a:ff:4c:44:b9:59:09:2c:a0:97:10:e8:d7:24:d2:
                    07:a5:d7:31:b5:b0:bc:4f:ae:38:88:4e:0a:f6:70:
                    61:2d:a0:1a:e8:43:4e:4b:e0:f4:37:7c:61:b8:5c:
                    17:b9:c8:e7:27:4d:9e:5a:17:94:88:b3:da:c9:6d:
                    30:3b:45:eb:63:bf:9b:b7:a6:15:38:1c:44:56:7e:
                    47:4d:02:06:48:76:da:8a:b1:76:3a:1f:12:54:aa:
                    41:d7:44:03:9b:82:ec:cc:bb:01:f9:ae:ed:f6:bd:
                    06:73:0a:0c:60:ca:eb:e4:8d:f9:9a:69:b8:08:6a:
                    41:6d:0d:50:4a:27:a1:10:8a:66:20:d6:20:dc:1d:
                    d6:74:09:9e:14:12:bd:fd:7d:53:71:f8:f7:fa:f1:
                    76:6a:1c:4c:68:52:6e:ca:7f:3b:9c:ff:ac:be:16:
                    bf:7f:e1:f7:95:d3:00:c5:d9:8f:f9:4d:17:63:06:
                    e3:0c:22:15:5a:6f:02:c0:ff:22:5f:3e:26:b4:17:
                    89:71:b9:69:f1:e9:c0:fe:2f:e3:ba:31:b8:d5:75:
                    8a:2a:65:fb:06:2b:c5:6d:82:3e:d9:6a:cf:4e:95:
                    74:af:22:eb:54:50:14:21:7d:53:b6:06:a9:a1:30:
                    fe:b8:83:2f:47:62:22:8e:ec:11:1e:af:6f:f9:fe:
                    e6:29:9c:e7:a1:2b:e6:fb:87:ac:e7:80:4f:1e:a4:
                    e8:73:a1:52:89:62:e3:8d:cd:08:79:4a:b5:73:28:
                    06:7c:64:09:74:56:ed:1e:28:5f:2a:4a:d2:93:bc:
                    e4:b8:91:36:83:31:d5:e0:8c:4e:e2:2b:52:01:c3:
                    e9:08:f7
                Exponent: 65537 (0x10001)
    Signature Algorithm: md5WithRSAEncryption
        53:86:d5:0f:70:2a:60:b1:55:e9:7b:fe:ce:5a:ef:b1:e9:65:
        b9:30:a6:0f:da:54:31:de:ec:ee:f9:b6:28:ac:49:05:46:20:
        29:b8:35:e7:67:41:29:af:55:18:19:2d:9a:e5:03:e6:5c:d3:
        bd:39:c1:1e:bc:72:c0:22:43:9c:fa:47:d7:4c:90:0b:8d:51:
        65:77:91:65:79:64:25:85:ef:29:a6:1e:25:c6:b2:9a:12:cd:
        07:0e:d6:01:13:f8:22:de:4d:b4:2d:46:3e:bd:f0:c0:8d:fa:
        fd:3a:04:da:15:95:5a:92:2d:5e:51:37:2a:15:7f:e1:18:3a:
        ed:11:0c:a2:6a:64:e7:00:03:40:6a:5e:f1:e8:ce:58:f4:1f:
        19:c6:54:8a:57:3b:63:2d:e2:91:fe:aa:c7:8c:d5:9b:c6:4d:
        06:4c:27:48:aa:13:8d:47:3b:22:22:af:37:25:ec:96:db:64:
        75:22:f5:f5:d7:df:63:d3:7d:dc:d9:c4:79:ae:9d:28:6f:3b:
        2f:f7:4d:04:97:4f:08:26:e8:fe:ec:fb:95:66:32:0f:4b:42:
        ff:cc:22:b2:ea:50:c8:f6:c3:60:fd:de:3f:d7:06:e9:f3:52:
        75:d9:27:8d:e4:22:af:b3:1c:bf:7f:19:10:2b:50:4c:ef:a5:
        cf:5a:7d:a7:bd:60:e0:e9:da:f0:77:0a:e1:dc:8f:af:02:ad:
        e4:7d:3e:38:a2:31:3d:04:62:ae:7f:79:a5:ed:3a:ca:88:51:
        1d:9e:45:77:8c:05:d0:6d:b0:f2:94:8b:ad:6c:42:68:59:e6:
        5c:4f:97:fd:0a:26:6c:06:b4:66:3f:3f:2b:64:67:fe:c2:cc:
        83:fd:ef:29:4f:fd:56:61:8d:b5:bf:b1:f7:c1:22:ce:7c:60:
        88:3d:c5:4a:e5:e3:75:e6:fe:25:58:c9:0c:15:68:67:e6:f2:
        41:d8:eb:ed:b6:93:55:f4:62:4c:a6:16:14:dd:b2:10:10:bd:
        38:bb:66:6c:85:ea
-----BEGIN CERTIFICATE-----
MIIFVjCCA74CAQcwDQYJKoZIhvcNAQEEBQAwgcUxCzAJBgNVBAYTAnVzMREwDwYD
VQQIEwhOZXcgWW9yazERMA8GA1UEBxMITmV3IFlvcmsxKTAnBgNVBAoTIEV4YW1w
bGUgQ0EgZnJvbSBBcHJlc3MgTWVkaWEgTExDMTkwNwYDVQQLEzBGb3VuZGF0aW9u
cyBvZiBQeXRob24gTmV0d29yayBQcm9ncmFtbWluZyAzcmQgRWQxCzAJBgNVBAMT
AmNhMR0wGwYJKoZIhvcNAQkBFg5jYUBleGFtcGxlLmNvbTAgFw0xNzA4MDIxMzE2
MThaGA8yMTE3MDcwOTEzMTYxOFowgZkxCzAJBgNVBAYTAnVzMREwDwYDVQQIDAhO
ZXcgWW9yazEmMCQGA1UECgwdRXhhbXBsZSBmcm9tIEFwcmVzcyBNZWRpYSBMTEMx
FDASBgNVBAsMC01pY2hhZWwgWW91MRgwFgYDVQQDDA93d3cuZXhhbXBsZS5jb20x
HzAdBgkqhkiG9w0BCQEWEHJvb3RAZXhhbXBsZS5jb20wggIiMA0GCSqGSIb3DQEB
AQUAA4ICDwAwggIKAoICAQC9d9ifTN5i1F94k7A1qsSma/QrbA9fcao4Ey9KgDU0
pC3Ic0xUwSlfdBAykkEoGsKAnNNgQFnR/q8YRT709SLC8AnmHR50p1cCGKcqQ4Rj
cdRZ/isn1yURSepQhnbCQagSEwVR5/B1jreCSoaqFpHlYTzFbDHekCyoYe5CIr+p
d/pvVv3I2kDZZdb9/BIDFUOnUZEV0PQi/n6nVLfd1YQV+Fp3mH7vW0ahJb/cvlQP
/L2IuF4YRQlqVxvwOWkDNVpcrIr/TES5WQksoJcQ6Nck0gel1zG1sLxPrjiITgr2
cGEtoBroQ05L4PQ3fGG4XBe5yOcnTZ5aF5SIs9rJbTA7Retjv5u3phU4HERWfkdN
AgZIdtqKsXY6HxJUqkHXRAObguzMuwH5ru32vQZzCgxgyuvkjfmaabgIakFtDVBK
J6EQimYg1iDcHdZ0CZ4UEr39fVNx+Pf68XZqHExoUm7Kfzuc/6y+Fr9/4feV0wDF
2Y/5TRdjBuMMIhVabwLA/yJfPia0F4lxuWnx6cD+L+O6MbjVdYoqZfsGK8Vtgj7Z
as9OlXSvIutUUBQhfVO2BqmhMP64gy9HYiKO7BEer2/5/uYpnOehK+b7h6zngE8e
pOhzoVKJYuONzQh5SrVzKAZ8ZAl0Vu0eKF8qStKTvOS4kTaDMdXgjE7iK1IBw+kI
9wIDAQABMA0GCSqGSIb3DQEBBAUAA4IBgQBThtUPcCpgsVXpe/7OWu+x6WW5MKYP
2lQx3uzu+bYorEkFRiApuDXnZ0Epr1UYGS2a5QPmXNO9OcEevHLAIkOc+kfXTJAL
jVFld5FleWQlhe8pph4lxrKaEs0HDtYBE/gi3k20LUY+vfDAjfr9OgTaFZVaki1e
UTcqFX/hGDrtEQyiamTnAANAal7x6M5Y9B8ZxlSKVztjLeKR/qrHjNWbxk0GTCdI
qhONRzsiIq83JeyW22R1IvX1199j033c2cR5rp0obzsv900El08IJuj+7PuVZjIP
S0L/zCKy6lDI9sNg/d4/1wbp81J12SeN5CKvsxy/fxkQK1BM76XPWn2nvWDg6drw
dwrh3I+vAq3kfT44ojE9BGKuf3ml7TrKiFEdnkV3jAXQbbDylIutbEJoWeZcT5f9
CiZsBrRmPz8rZGf+wsyD/e8pT/1WYY21v7H3wSLOfGCIPcVK5eN15v4lWMkMFWhn
5vJB2OvttpNV9GJMphYU3bIQEL04u2Zsheo=
-----END CERTIFICATE-----
